; Function Attrs: mustprogress uwtable
define void @_ZN2cv17AVIWriteContainer12jflushStreamEji(ptr noundef nonnull readonly align 8 captures(none) dereferenceable(136) %0, i32 noundef %1, i32 noundef %2) local_unnamed_addr #4 align 2 {
  %4 = load ptr, ptr %0, align 8, !tbaa !153
  %5 = getelementptr inbounds nuw i8, ptr %4, i64 552
  %6 = load ptr, ptr %5, align 8, !tbaa !133
  %7 = icmp slt i32 %2, 32
  br i1 %7, label %.lr.ph.preheader.i, label %._crit_edge.i

.lr.ph.preheader.i:                               ; preds = %3
  %notmask.i = shl nsw i32 -1, %2
  %8 = xor i32 %notmask.i, -1
  %9 = or i32 %1, %8
  br label %.lr.ph.i

.lr.ph.i:                                         ; preds = %16, %.lr.ph.preheader.i
  %.015.i = phi ptr [ %.1.i, %16 ], [ %6, %.lr.ph.preheader.i ]
  %.01114.i = phi i32 [ %17, %16 ], [ %9, %.lr.ph.preheader.i ]
  %.01213.i = phi i32 [ %18, %16 ], [ %2, %.lr.ph.preheader.i ]
  %10 = lshr i32 %.01114.i, 24
  %11 = trunc nuw i32 %10 to i8
  %12 = getelementptr inbounds nuw i8, ptr %.015.i, i64 1
  store i8 %11, ptr %.015.i, align 1, !tbaa !27
  %13 = icmp eq i32 %10, 255
  br i1 %13, label %14, label %16

14:                                               ; preds = %.lr.ph.i
  %15 = getelementptr inbounds nuw i8, ptr %.015.i, i64 2
  store i8 0, ptr %12, align 1, !tbaa !27
  br label %16

16:                                               ; preds = %14, %.lr.ph.i
  %.1.i = phi ptr [ %15, %14 ], [ %12, %.lr.ph.i ]
  %17 = shl i32 %.01114.i, 8
  %18 = add nsw i32 %.01213.i, 8
  %19 = icmp slt i32 %.01213.i, 24
  br i1 %19, label %.lr.ph.i, label %._crit_edge.i, !llvm.loop !149

._crit_edge.i:                                    ; preds = %16, %3
  %.0.lcssa.i = phi ptr [ %6, %3 ], [ %.1.i, %16 ]
  store ptr %.0.lcssa.i, ptr %5, align 8, !tbaa !133
  %20 = getelementptr inbounds nuw i8, ptr %4, i64 544
  %21 = load ptr, ptr %20, align 8, !tbaa !130
  %.not.i = icmp ult ptr %.0.lcssa.i, %21
  br i1 %.not.i, label %_ZN2cv9BitStream6jflushEji.exit, label %22

22:                                               ; preds = %._crit_edge.i
  %23 = getelementptr inbounds nuw i8, ptr %4, i64 536
  %24 = load ptr, ptr %23, align 8, !tbaa !123
  %25 = ptrtoint ptr %.0.lcssa.i to i64
  %26 = ptrtoint ptr %24 to i64
  %27 = sub i64 %25, %26
  %28 = icmp sgt i64 %27, 0
  br i1 %28, label %29, label %_ZN2cv9BitStream10writeBlockEv.exit.i

29:                                               ; preds = %22
  %30 = tail call noundef nonnull align 8 dereferenceable(8) ptr @_ZNSo5writeEPKcl(ptr noundef nonnull align 8 dereferenceable(569) %4, ptr noundef %24, i64 noundef %27)
  %.pre.i.i = load ptr, ptr %23, align 8, !tbaa !123
  br label %_ZN2cv9BitStream10writeBlockEv.exit.i

_ZN2cv9BitStream10writeBlockEv.exit.i:            ; preds = %29, %22
  %31 = phi ptr [ %.pre.i.i, %29 ], [ %24, %22 ]
  %32 = getelementptr inbounds nuw i8, ptr %4, i64 560
  %33 = load i64, ptr %32, align 8, !tbaa !134
  %34 = add i64 %33, %27
  store i64 %34, ptr %32, align 8, !tbaa !134
  store ptr %31, ptr %5, align 8, !tbaa !133
  br label %_ZN2cv9BitStream6jflushEji.exit

_ZN2cv9BitStream6jflushEji.exit:                  ; preds = %._crit_edge.i, %_ZN2cv9BitStream10writeBlockEv.exit.i
  ret void
}